target datalayout = "e-m:e-p270:32:32-p271:32:32-p272:64:64-i64:64-i128:128-f80:128-n8:16:32:64-S128"
target triple = "x86_64-pc-linux-gnu"

%struct.VP8LBitWriter = type { i64, i32, ptr, ptr, ptr, i32 }
%struct.WebPPicture = type { i32, i32, i32, i32, ptr, ptr, ptr, i32, i32, ptr, i32, [2 x i32], ptr, i32, [3 x i32], ptr, ptr, i32, ptr, ptr, i32, ptr, ptr, [3 x i32], ptr, ptr, [8 x i32], ptr, ptr, [2 x ptr] }

@__const.WriteRiffHeader.riff = private unnamed_addr constant [21 x i8] c"RIFF\00\00\00\00WEBPVP8L\00\00\00\00/", align 16

; Function Attrs: inlinehint nounwind uwtable
define internal void @PutLE16(ptr noundef %0, i32 noundef %1) #3 {
  %3 = alloca ptr, align 8
  %4 = alloca i32, align 4
  store ptr %0, ptr %3, align 8, !tbaa !81
  store i32 %1, ptr %4, align 4, !tbaa !11
  %5 = load i32, ptr %4, align 4, !tbaa !11
  %6 = ashr i32 %5, 0
  %7 = and i32 %6, 255
  %8 = trunc i32 %7 to i8
  %9 = load ptr, ptr %3, align 8, !tbaa !81
  %10 = getelementptr inbounds i8, ptr %9, i64 0
  store i8 %8, ptr %10, align 1, !tbaa !17
  %11 = load i32, ptr %4, align 4, !tbaa !11
  %12 = ashr i32 %11, 8
  %13 = and i32 %12, 255
  %14 = trunc i32 %13 to i8
  %15 = load ptr, ptr %3, align 8, !tbaa !81
  %16 = getelementptr inbounds i8, ptr %15, i64 1
  store i8 %14, ptr %16, align 1, !tbaa !17
  ret void
}

; Function Attrs: inlinehint nounwind uwtable
define internal void @PutLE32(ptr noundef %0, i32 noundef %1) #3 {
  %3 = alloca ptr, align 8
  %4 = alloca i32, align 4
  store ptr %0, ptr %3, align 8, !tbaa !81
  store i32 %1, ptr %4, align 4, !tbaa !11
  %5 = load ptr, ptr %3, align 8, !tbaa !81
  %6 = load i32, ptr %4, align 4, !tbaa !11
  %7 = and i32 %6, 65535
  call void @PutLE16(ptr noundef %5, i32 noundef %7)
  %8 = load ptr, ptr %3, align 8, !tbaa !81
  %9 = getelementptr inbounds i8, ptr %8, i64 2
  %10 = load i32, ptr %4, align 4, !tbaa !11
  %11 = lshr i32 %10, 16
  call void @PutLE16(ptr noundef %9, i32 noundef %11)
  ret void
}

; Function Attrs: nounwind uwtable
define internal i32 @WriteRiffHeader(ptr noundef %0, i64 noundef %1, i64 noundef %2) #0 {
  %4 = alloca ptr, align 8
  %5 = alloca i64, align 8
  %6 = alloca i64, align 8
  %7 = alloca [21 x i8], align 16
  store ptr %0, ptr %4, align 8, !tbaa !8
  store i64 %1, ptr %5, align 8, !tbaa !79
  store i64 %2, ptr %6, align 8, !tbaa !79
  call void @llvm.lifetime.start.p0(i64 21, ptr %7) #7
  call void @llvm.memcpy.p0.p0.i64(ptr align 16 %7, ptr align 16 @__const.WriteRiffHeader.riff, i64 21, i1 false)
  %8 = getelementptr inbounds [21 x i8], ptr %7, i64 0, i64 0
  %9 = getelementptr inbounds i8, ptr %8, i64 4
  %10 = load i64, ptr %5, align 8, !tbaa !79
  %11 = trunc i64 %10 to i32
  call void @PutLE32(ptr noundef %9, i32 noundef %11)
  %12 = getelementptr inbounds [21 x i8], ptr %7, i64 0, i64 0
  %13 = getelementptr inbounds i8, ptr %12, i64 12
  %14 = getelementptr inbounds i8, ptr %13, i64 4
  %15 = load i64, ptr %6, align 8, !tbaa !79
  %16 = trunc i64 %15 to i32
  call void @PutLE32(ptr noundef %14, i32 noundef %16)
  %17 = load ptr, ptr %4, align 8, !tbaa !8
  %18 = getelementptr inbounds nuw %struct.WebPPicture, ptr %17, i32 0, i32 15
  %19 = load ptr, ptr %18, align 8, !tbaa !112
  %20 = getelementptr inbounds [21 x i8], ptr %7, i64 0, i64 0
  %21 = load ptr, ptr %4, align 8, !tbaa !8
  %22 = call i32 %19(ptr noundef %20, i64 noundef 21, ptr noundef %21)
  call void @llvm.lifetime.end.p0(i64 21, ptr %7) #7
  ret i32 %22
}

; Function Attrs: inlinehint nounwind uwtable
define internal i64 @VP8LBitWriterNumBytes(ptr noundef %0) #3 {
  %2 = alloca ptr, align 8
  store ptr %0, ptr %2, align 8, !tbaa !10
  %3 = load ptr, ptr %2, align 8, !tbaa !10
  %4 = getelementptr inbounds nuw %struct.VP8LBitWriter, ptr %3, i32 0, i32 3
  %5 = load ptr, ptr %4, align 8, !tbaa !101
  %6 = load ptr, ptr %2, align 8, !tbaa !10
  %7 = getelementptr inbounds nuw %struct.VP8LBitWriter, ptr %6, i32 0, i32 2
  %8 = load ptr, ptr %7, align 8, !tbaa !103
  %9 = ptrtoint ptr %5 to i64
  %10 = ptrtoint ptr %8 to i64
  %11 = sub i64 %9, %10
  %12 = load ptr, ptr %2, align 8, !tbaa !10
  %13 = getelementptr inbounds nuw %struct.VP8LBitWriter, ptr %12, i32 0, i32 1
  %14 = load i32, ptr %13, align 8, !tbaa !104
  %15 = add nsw i32 %14, 7
  %16 = ashr i32 %15, 3
  %17 = sext i32 %16 to i64
  %18 = add nsw i64 %11, %17
  ret i64 %18
}

; Function Attrs: nounwind uwtable
define internal i32 @WriteImage(ptr noundef %0, ptr noundef %1, ptr noundef %2) #0 {
  %4 = alloca i32, align 4
  %5 = alloca ptr, align 8
  %6 = alloca ptr, align 8
  %7 = alloca ptr, align 8
  %8 = alloca ptr, align 8
  %9 = alloca i64, align 8
  %10 = alloca i64, align 8
  %11 = alloca i64, align 8
  %12 = alloca i64, align 8
  %13 = alloca i32, align 4
  %14 = alloca [1 x i8], align 1
  store ptr %0, ptr %5, align 8, !tbaa !8
  store ptr %1, ptr %6, align 8, !tbaa !10
  store ptr %2, ptr %7, align 8, !tbaa !110
  call void @llvm.lifetime.start.p0(i64 8, ptr %8) #7
  %15 = load ptr, ptr %6, align 8, !tbaa !10
  %16 = call ptr @VP8LBitWriterFinish(ptr noundef %15)
  store ptr %16, ptr %8, align 8, !tbaa !81
  call void @llvm.lifetime.start.p0(i64 8, ptr %9) #7
  %17 = load ptr, ptr %6, align 8, !tbaa !10
  %18 = call i64 @VP8LBitWriterNumBytes(ptr noundef %17)
  store i64 %18, ptr %9, align 8, !tbaa !79
  call void @llvm.lifetime.start.p0(i64 8, ptr %10) #7
  %19 = load i64, ptr %9, align 8, !tbaa !79
  %20 = add i64 1, %19
  store i64 %20, ptr %10, align 8, !tbaa !79
  call void @llvm.lifetime.start.p0(i64 8, ptr %11) #7
  %21 = load i64, ptr %10, align 8, !tbaa !79
  %22 = and i64 %21, 1
  store i64 %22, ptr %11, align 8, !tbaa !79
  call void @llvm.lifetime.start.p0(i64 8, ptr %12) #7
  %23 = load i64, ptr %10, align 8, !tbaa !79
  %24 = add i64 12, %23
  %25 = load i64, ptr %11, align 8, !tbaa !79
  %26 = add i64 %24, %25
  store i64 %26, ptr %12, align 8, !tbaa !79
  %27 = load ptr, ptr %7, align 8, !tbaa !110
  store i64 0, ptr %27, align 8, !tbaa !79
  %28 = load ptr, ptr %6, align 8, !tbaa !10
  %29 = getelementptr inbounds nuw %struct.VP8LBitWriter, ptr %28, i32 0, i32 5
  %30 = load i32, ptr %29, align 8, !tbaa !109
  %31 = icmp ne i32 %30, 0
  br i1 %31, label %32, label %35

32:                                               ; preds = %3
  %33 = load ptr, ptr %5, align 8, !tbaa !8
  %34 = call i32 @WebPEncodingSetError(ptr noundef %33, i32 noundef 1)
  store i32 %34, ptr %4, align 4
  store i32 1, ptr %13, align 4
  br label %75

35:                                               ; preds = %3
  %36 = load ptr, ptr %5, align 8, !tbaa !8
  %37 = load i64, ptr %12, align 8, !tbaa !79
  %38 = load i64, ptr %10, align 8, !tbaa !79
  %39 = call i32 @WriteRiffHeader(ptr noundef %36, i64 noundef %37, i64 noundef %38)
  %40 = icmp ne i32 %39, 0
  br i1 %40, label %41, label %50

41:                                               ; preds = %35
  %42 = load ptr, ptr %5, align 8, !tbaa !8
  %43 = getelementptr inbounds nuw %struct.WebPPicture, ptr %42, i32 0, i32 15
  %44 = load ptr, ptr %43, align 8, !tbaa !112
  %45 = load ptr, ptr %8, align 8, !tbaa !81
  %46 = load i64, ptr %9, align 8, !tbaa !79
  %47 = load ptr, ptr %5, align 8, !tbaa !8
  %48 = call i32 %44(ptr noundef %45, i64 noundef %46, ptr noundef %47)
  %49 = icmp ne i32 %48, 0
  br i1 %49, label %53, label %50

50:                                               ; preds = %41, %35
  %51 = load ptr, ptr %5, align 8, !tbaa !8
  %52 = call i32 @WebPEncodingSetError(ptr noundef %51, i32 noundef 8)
  store i32 %52, ptr %4, align 4
  store i32 1, ptr %13, align 4
  br label %75

53:                                               ; preds = %41
  %54 = load i64, ptr %11, align 8, !tbaa !79
  %55 = icmp ne i64 %54, 0
  br i1 %55, label %56, label %71

56:                                               ; preds = %53
  call void @llvm.lifetime.start.p0(i64 1, ptr %14) #7
  call void @llvm.memset.p0.i64(ptr align 1 %14, i8 0, i64 1, i1 false)
  %57 = load ptr, ptr %5, align 8, !tbaa !8
  %58 = getelementptr inbounds nuw %struct.WebPPicture, ptr %57, i32 0, i32 15
  %59 = load ptr, ptr %58, align 8, !tbaa !112
  %60 = getelementptr inbounds [1 x i8], ptr %14, i64 0, i64 0
  %61 = load ptr, ptr %5, align 8, !tbaa !8
  %62 = call i32 %59(ptr noundef %60, i64 noundef 1, ptr noundef %61)
  %63 = icmp ne i32 %62, 0
  br i1 %63, label %67, label %64

64:                                               ; preds = %56
  %65 = load ptr, ptr %5, align 8, !tbaa !8
  %66 = call i32 @WebPEncodingSetError(ptr noundef %65, i32 noundef 8)
  store i32 %66, ptr %4, align 4
  store i32 1, ptr %13, align 4
  br label %68

67:                                               ; preds = %56
  store i32 0, ptr %13, align 4
  br label %68

68:                                               ; preds = %67, %64
  call void @llvm.lifetime.end.p0(i64 1, ptr %14) #7
  %69 = load i32, ptr %13, align 4
  switch i32 %69, label %75 [
    i32 0, label %70
  ]

70:                                               ; preds = %68
  br label %71

71:                                               ; preds = %70, %53
  %72 = load i64, ptr %12, align 8, !tbaa !79
  %73 = add i64 8, %72
  %74 = load ptr, ptr %7, align 8, !tbaa !110
  store i64 %73, ptr %74, align 8, !tbaa !79
  store i32 1, ptr %4, align 4
  store i32 1, ptr %13, align 4
  br label %75

75:                                               ; preds = %71, %68, %50, %32
  call void @llvm.lifetime.end.p0(i64 8, ptr %12) #7
  call void @llvm.lifetime.end.p0(i64 8, ptr %11) #7
  call void @llvm.lifetime.end.p0(i64 8, ptr %10) #7
  call void @llvm.lifetime.end.p0(i64 8, ptr %9) #7
  call void @llvm.lifetime.end.p0(i64 8, ptr %8) #7
  %76 = load i32, ptr %4, align 4
  ret i32 %76
}